target datalayout = "e-m:e-p270:32:32-p271:32:32-p272:64:64-i64:64-i128:128-f80:128-n8:16:32:64-S128"
target triple = "x86_64-pc-linux-gnu"

%"class.std::__cxx11::basic_string" = type { %"struct.std::__cxx11::basic_string<char>::_Alloc_hider", i64, %union.anon }
%"struct.std::__cxx11::basic_string<char>::_Alloc_hider" = type { ptr }
%union.anon = type { i64, [8 x i8] }

@_ZZN32pxrInternal_v0_24__pxrReserved__14TfGetExtensionERKNSt7__cxx1112basic_stringIcSt11char_traitsIcESaIcEEEE9emptyPathB5cxx11 = internal global %"class.std::__cxx11::basic_string" zeroinitializer, align 8
@_ZGVZN32pxrInternal_v0_24__pxrReserved__14TfGetExtensionERKNSt7__cxx1112basic_stringIcSt11char_traitsIcESaIcEEEE9emptyPathB5cxx11 = internal global i64 0, align 8
@__dso_handle = external hidden global i8

; Function Attrs: mustprogress uwtable
define void @_ZN32pxrInternal_v0_24__pxrReserved__14TfGetExtensionERKNSt7__cxx1112basic_stringIcSt11char_traitsIcESaIcEEE(ptr dead_on_unwind noalias writable sret(%"class.std::__cxx11::basic_string") align 8 %0, ptr noundef nonnull align 8 dereferenceable(32) %1) #0 personality ptr @__gxx_personality_v0 {
  %3 = alloca ptr, align 8
  %4 = alloca ptr, align 8
  %5 = alloca %"class.std::__cxx11::basic_string", align 8
  %6 = alloca %"class.std::__cxx11::basic_string", align 8
  %7 = alloca ptr, align 8
  %8 = alloca i32, align 4
  %9 = alloca i32, align 4
  store ptr %0, ptr %3, align 8
  store ptr %1, ptr %4, align 8
  %10 = load atomic i8, ptr @_ZGVZN32pxrInternal_v0_24__pxrReserved__14TfGetExtensionERKNSt7__cxx1112basic_stringIcSt11char_traitsIcESaIcEEEE9emptyPathB5cxx11 acquire, align 8
  %11 = icmp eq i8 %10, 0
  br i1 %11, label %12, label %17, !prof !6

12:                                               ; preds = %2
  %13 = call i32 @__cxa_guard_acquire(ptr @_ZGVZN32pxrInternal_v0_24__pxrReserved__14TfGetExtensionERKNSt7__cxx1112basic_stringIcSt11char_traitsIcESaIcEEEE9emptyPathB5cxx11) #5
  %14 = icmp ne i32 %13, 0
  br i1 %14, label %15, label %17

15:                                               ; preds = %12
  call void @_ZNSt7__cxx1112basic_stringIcSt11char_traitsIcESaIcEEC1Ev(ptr noundef nonnull align 8 dereferenceable(32) @_ZZN32pxrInternal_v0_24__pxrReserved__14TfGetExtensionERKNSt7__cxx1112basic_stringIcSt11char_traitsIcESaIcEEEE9emptyPathB5cxx11) #5
  %16 = call i32 @__cxa_atexit(ptr @_ZNSt7__cxx1112basic_stringIcSt11char_traitsIcESaIcEED1Ev, ptr @_ZZN32pxrInternal_v0_24__pxrReserved__14TfGetExtensionERKNSt7__cxx1112basic_stringIcSt11char_traitsIcESaIcEEEE9emptyPathB5cxx11, ptr @__dso_handle) #5
  call void @__cxa_guard_release(ptr @_ZGVZN32pxrInternal_v0_24__pxrReserved__14TfGetExtensionERKNSt7__cxx1112basic_stringIcSt11char_traitsIcESaIcEEEE9emptyPathB5cxx11) #5
  br label %17

17:                                               ; preds = %15, %12, %2
  %18 = load ptr, ptr %4, align 8
  %19 = call noundef zeroext i1 @_ZNKSt7__cxx1112basic_stringIcSt11char_traitsIcESaIcEE5emptyEv(ptr noundef nonnull align 8 dereferenceable(32) %18) #5
  br i1 %19, label %20, label %21

20:                                               ; preds = %17
  call void @_ZNSt7__cxx1112basic_stringIcSt11char_traitsIcESaIcEEC1ERKS4_(ptr noundef nonnull align 8 dereferenceable(32) %0, ptr noundef nonnull align 8 dereferenceable(32) @_ZZN32pxrInternal_v0_24__pxrReserved__14TfGetExtensionERKNSt7__cxx1112basic_stringIcSt11char_traitsIcESaIcEEEE9emptyPathB5cxx11)
  br label %34

21:                                               ; preds = %17
  %22 = load ptr, ptr %4, align 8
  call void @_ZN32pxrInternal_v0_24__pxrReserved__13TfGetBaseNameERKNSt7__cxx1112basic_stringIcSt11char_traitsIcESaIcEEE(ptr dead_on_unwind writable sret(%"class.std::__cxx11::basic_string") align 8 %5, ptr noundef nonnull align 8 dereferenceable(32) %22)
  invoke void @_ZN32pxrInternal_v0_24__pxrReserved__23TfStringGetBeforeSuffixERKNSt7__cxx1112basic_stringIcSt11char_traitsIcESaIcEEEc(ptr dead_on_unwind writable sret(%"class.std::__cxx11::basic_string") align 8 %6, ptr noundef nonnull align 8 dereferenceable(32) %5, i8 noundef signext 46)
          to label %23 unwind label %27

23:                                               ; preds = %21
  %24 = call noundef zeroext i1 @_ZNKSt7__cxx1112basic_stringIcSt11char_traitsIcESaIcEE5emptyEv(ptr noundef nonnull align 8 dereferenceable(32) %6) #5
  call void @_ZNSt7__cxx1112basic_stringIcSt11char_traitsIcESaIcEED1Ev(ptr noundef nonnull align 8 dereferenceable(32) %6) #5
  br i1 %24, label %25, label %31

25:                                               ; preds = %23
  invoke void @_ZNSt7__cxx1112basic_stringIcSt11char_traitsIcESaIcEEC1ERKS4_(ptr noundef nonnull align 8 dereferenceable(32) %0, ptr noundef nonnull align 8 dereferenceable(32) @_ZZN32pxrInternal_v0_24__pxrReserved__14TfGetExtensionERKNSt7__cxx1112basic_stringIcSt11char_traitsIcESaIcEEEE9emptyPathB5cxx11)
          to label %26 unwind label %27

26:                                               ; preds = %25
  store i32 1, ptr %9, align 4
  br label %33

27:                                               ; preds = %31, %25, %21
  %28 = landingpad { ptr, i32 }
          cleanup
  %29 = extractvalue { ptr, i32 } %28, 0
  store ptr %29, ptr %7, align 8
  %30 = extractvalue { ptr, i32 } %28, 1
  store i32 %30, ptr %8, align 4
  call void @_ZNSt7__cxx1112basic_stringIcSt11char_traitsIcESaIcEED1Ev(ptr noundef nonnull align 8 dereferenceable(32) %5) #5
  br label %35

31:                                               ; preds = %23
  invoke void @_ZN32pxrInternal_v0_24__pxrReserved__17TfStringGetSuffixERKNSt7__cxx1112basic_stringIcSt11char_traitsIcESaIcEEEc(ptr dead_on_unwind writable sret(%"class.std::__cxx11::basic_string") align 8 %0, ptr noundef nonnull align 8 dereferenceable(32) %5, i8 noundef signext 46)
          to label %32 unwind label %27

32:                                               ; preds = %31
  store i32 1, ptr %9, align 4
  br label %33

33:                                               ; preds = %32, %26
  call void @_ZNSt7__cxx1112basic_stringIcSt11char_traitsIcESaIcEED1Ev(ptr noundef nonnull align 8 dereferenceable(32) %5) #5
  br label %34

34:                                               ; preds = %33, %20
  ret void

35:                                               ; preds = %27
  %36 = load ptr, ptr %7, align 8
  %37 = load i32, ptr %8, align 4
  %38 = insertvalue { ptr, i32 } poison, ptr %36, 0
  %39 = insertvalue { ptr, i32 } %38, i32 %37, 1
  resume { ptr, i32 } %39
}