; Function Attrs: mustprogress uwtable
define void @_ZN32pxrInternal_v0_24__pxrReserved__14TfGetExtensionERKNSt7__cxx1112basic_stringIcSt11char_traitsIcESaIcEEE(ptr dead_on_unwind noalias writable sret(%"class.std::__cxx11::basic_string") align 8 %0, ptr noundef nonnull align 8 dereferenceable(32) %1) local_unnamed_addr #0 personality ptr @__gxx_personality_v0 {
  %3 = alloca %"class.std::__cxx11::basic_string", align 8
  %4 = alloca %"class.std::__cxx11::basic_string", align 8
  %5 = load atomic i8, ptr @_ZGVZN32pxrInternal_v0_24__pxrReserved__14TfGetExtensionERKNSt7__cxx1112basic_stringIcSt11char_traitsIcESaIcEEEE9emptyPathB5cxx11 acquire, align 8
  %6 = icmp eq i8 %5, 0
  br i1 %6, label %7, label %11, !prof !13

7:                                                ; preds = %2
  %8 = tail call i32 @__cxa_guard_acquire(ptr nonnull @_ZGVZN32pxrInternal_v0_24__pxrReserved__14TfGetExtensionERKNSt7__cxx1112basic_stringIcSt11char_traitsIcESaIcEEEE9emptyPathB5cxx11) #18
  %.not = icmp eq i32 %8, 0
  br i1 %.not, label %11, label %9

9:                                                ; preds = %7
  tail call void @_ZNSt7__cxx1112basic_stringIcSt11char_traitsIcESaIcEEC1Ev(ptr noundef nonnull align 8 dereferenceable(32) @_ZZN32pxrInternal_v0_24__pxrReserved__14TfGetExtensionERKNSt7__cxx1112basic_stringIcSt11char_traitsIcESaIcEEEE9emptyPathB5cxx11) #18
  %10 = tail call i32 @__cxa_atexit(ptr nonnull @_ZNSt7__cxx1112basic_stringIcSt11char_traitsIcESaIcEED1Ev, ptr nonnull @_ZZN32pxrInternal_v0_24__pxrReserved__14TfGetExtensionERKNSt7__cxx1112basic_stringIcSt11char_traitsIcESaIcEEEE9emptyPathB5cxx11, ptr nonnull @__dso_handle) #18
  tail call void @__cxa_guard_release(ptr nonnull @_ZGVZN32pxrInternal_v0_24__pxrReserved__14TfGetExtensionERKNSt7__cxx1112basic_stringIcSt11char_traitsIcESaIcEEEE9emptyPathB5cxx11) #18
  br label %11

11:                                               ; preds = %9, %7, %2
  %12 = tail call noundef zeroext i1 @_ZNKSt7__cxx1112basic_stringIcSt11char_traitsIcESaIcEE5emptyEv(ptr noundef nonnull align 8 dereferenceable(32) %1) #18
  br i1 %12, label %13, label %14

13:                                               ; preds = %11
  tail call void @_ZNSt7__cxx1112basic_stringIcSt11char_traitsIcESaIcEEC1ERKS4_(ptr noundef nonnull align 8 dereferenceable(32) %0, ptr noundef nonnull align 8 dereferenceable(32) @_ZZN32pxrInternal_v0_24__pxrReserved__14TfGetExtensionERKNSt7__cxx1112basic_stringIcSt11char_traitsIcESaIcEEEE9emptyPathB5cxx11)
  br label %22

14:                                               ; preds = %11
  call void @_ZN32pxrInternal_v0_24__pxrReserved__13TfGetBaseNameERKNSt7__cxx1112basic_stringIcSt11char_traitsIcESaIcEEE(ptr dead_on_unwind nonnull writable sret(%"class.std::__cxx11::basic_string") align 8 %3, ptr noundef nonnull align 8 dereferenceable(32) %1)
  invoke void @_ZN32pxrInternal_v0_24__pxrReserved__23TfStringGetBeforeSuffixERKNSt7__cxx1112basic_stringIcSt11char_traitsIcESaIcEEEc(ptr dead_on_unwind nonnull writable sret(%"class.std::__cxx11::basic_string") align 8 %4, ptr noundef nonnull align 8 dereferenceable(32) %3, i8 noundef signext 46)
          to label %15 unwind label %18

15:                                               ; preds = %14
  %16 = call noundef zeroext i1 @_ZNKSt7__cxx1112basic_stringIcSt11char_traitsIcESaIcEE5emptyEv(ptr noundef nonnull align 8 dereferenceable(32) %4) #18
  call void @_ZNSt7__cxx1112basic_stringIcSt11char_traitsIcESaIcEED1Ev(ptr noundef nonnull align 8 dereferenceable(32) %4) #18
  br i1 %16, label %17, label %20

17:                                               ; preds = %15
  invoke void @_ZNSt7__cxx1112basic_stringIcSt11char_traitsIcESaIcEEC1ERKS4_(ptr noundef nonnull align 8 dereferenceable(32) %0, ptr noundef nonnull align 8 dereferenceable(32) @_ZZN32pxrInternal_v0_24__pxrReserved__14TfGetExtensionERKNSt7__cxx1112basic_stringIcSt11char_traitsIcESaIcEEEE9emptyPathB5cxx11)
          to label %21 unwind label %18

18:                                               ; preds = %20, %17, %14
  %19 = landingpad { ptr, i32 }
          cleanup
  call void @_ZNSt7__cxx1112basic_stringIcSt11char_traitsIcESaIcEED1Ev(ptr noundef nonnull align 8 dereferenceable(32) %3) #18
  resume { ptr, i32 } %19

20:                                               ; preds = %15
  invoke void @_ZN32pxrInternal_v0_24__pxrReserved__17TfStringGetSuffixERKNSt7__cxx1112basic_stringIcSt11char_traitsIcESaIcEEEc(ptr dead_on_unwind writable sret(%"class.std::__cxx11::basic_string") align 8 %0, ptr noundef nonnull align 8 dereferenceable(32) %3, i8 noundef signext 46)
          to label %21 unwind label %18

21:                                               ; preds = %20, %17
  call void @_ZNSt7__cxx1112basic_stringIcSt11char_traitsIcESaIcEED1Ev(ptr noundef nonnull align 8 dereferenceable(32) %3) #18
  br label %22

22:                                               ; preds = %21, %13
  ret void
}